target datalayout = "e-m:e-p270:32:32-p271:32:32-p272:64:64-i64:64-i128:128-f80:128-n8:16:32:64-S128"
target triple = "x86_64-pc-linux-gnu"

%"class.std::basic_string_view" = type { i64, ptr }

@.str.343 = private unnamed_addr constant [2 x i8] c"a\00", align 1
@__const._ZN12_GLOBAL__N_133ParseTest_TestValidDoubleArg_Test8TestBodyEv.in_args1 = private unnamed_addr constant [2 x ptr] [ptr @.str.350, ptr @.str.377], align 16
@__const._ZN12_GLOBAL__N_133ParseTest_TestValidDoubleArg_Test8TestBodyEv.in_args2 = private unnamed_addr constant [2 x ptr] [ptr @.str.350, ptr @.str.378], align 16
@__const._ZN12_GLOBAL__N_133ParseTest_TestValidDoubleArg_Test8TestBodyEv.in_args3 = private unnamed_addr constant [3 x ptr] [ptr @.str.350, ptr @.str.379, ptr @.str.380], align 16
@__const._ZN12_GLOBAL__N_133ParseTest_TestValidDoubleArg_Test8TestBodyEv.in_args4 = private unnamed_addr constant [3 x ptr] [ptr @.str.350, ptr @.str.379, ptr @.str.381], align 16

; Function Attrs: noinline noreturn nounwind uwtable
define linkonce_odr hidden void @__clang_call_terminate(ptr noundef %0) #11 comdat {
  %2 = call ptr @__cxa_begin_catch(ptr %0) #3
  call void @_ZSt9terminatev() #26
  unreachable
}

; Function Attrs: mustprogress nounwind uwtable
define linkonce_odr dso_local noundef i64 @_ZNSt11char_traitsIcE6lengthEPKc(ptr noundef %0) #6 comdat align 2 {
  %2 = alloca ptr, align 8
  store ptr %0, ptr %2, align 8, !tbaa !17
  %3 = load ptr, ptr %2, align 8, !tbaa !17
  %4 = call i64 @strlen(ptr noundef %3) #3
  ret i64 %4
}

; Function Attrs: mustprogress nounwind uwtable
define linkonce_odr dso_local void @_ZNSt17basic_string_viewIcSt11char_traitsIcEEC2EPKc(ptr noundef nonnull align 8 dereferenceable(16) %0, ptr noundef nonnull %1) unnamed_addr #6 comdat align 2 personality ptr @__gxx_personality_v0 {
  %3 = alloca ptr, align 8
  %4 = alloca ptr, align 8
  store ptr %0, ptr %3, align 8, !tbaa !172
  store ptr %1, ptr %4, align 8, !tbaa !17
  %5 = load ptr, ptr %3, align 8
  %6 = getelementptr inbounds nuw %"class.std::basic_string_view", ptr %5, i32 0, i32 0
  %7 = load ptr, ptr %4, align 8, !tbaa !17
  %8 = invoke noundef i64 @_ZNSt11char_traitsIcE6lengthEPKc(ptr noundef %7)
          to label %9 unwind label %12

9:                                                ; preds = %2
  store i64 %8, ptr %6, align 8, !tbaa !174
  %10 = getelementptr inbounds nuw %"class.std::basic_string_view", ptr %5, i32 0, i32 1
  %11 = load ptr, ptr %4, align 8, !tbaa !17
  store ptr %11, ptr %10, align 8, !tbaa !176
  ret void

12:                                               ; preds = %2
  %13 = landingpad { ptr, i32 }
          catch ptr null
  %14 = extractvalue { ptr, i32 } %13, 0
  call void @__clang_call_terminate(ptr %14) #26
  unreachable
}

; Function Attrs: mustprogress uwtable
define internal void @_ZN12_GLOBAL__N_133ParseTest_TestValidDoubleArg_Test8TestBodyEv(ptr noundef nonnull align 8 dereferenceable(24) %0) unnamed_addr #4 align 2 {
  %2 = alloca ptr, align 8
  %3 = alloca [2 x ptr], align 16
  %4 = alloca %"class.std::basic_string_view", align 8
  %5 = alloca [2 x ptr], align 16
  %6 = alloca %"class.std::basic_string_view", align 8
  %7 = alloca [3 x ptr], align 16
  %8 = alloca %"class.std::basic_string_view", align 8
  %9 = alloca [3 x ptr], align 16
  %10 = alloca %"class.std::basic_string_view", align 8
  store ptr %0, ptr %2, align 8, !tbaa !356
  call void @llvm.lifetime.start.p0(i64 16, ptr %3) #3
  call void @llvm.memcpy.p0.p0.i64(ptr align 16 %3, ptr align 16 @__const._ZN12_GLOBAL__N_133ParseTest_TestValidDoubleArg_Test8TestBodyEv.in_args1, i64 16, i1 false)
  call void @_ZNSt17basic_string_viewIcSt11char_traitsIcEEC2EPKc(ptr noundef nonnull align 8 dereferenceable(16) %4, ptr noundef @.str.343) #3
  %11 = getelementptr inbounds nuw { i64, ptr }, ptr %4, i32 0, i32 0
  %12 = load i64, ptr %11, align 8
  %13 = getelementptr inbounds nuw { i64, ptr }, ptr %4, i32 0, i32 1
  %14 = load ptr, ptr %13, align 8
  call void @_ZN12_GLOBAL__N_19TestParseILi2EEEvRAT__PKcidSt17basic_string_viewIcSt11char_traitsIcEEbi(ptr noundef nonnull align 8 dereferenceable(16) %3, i32 noundef 1, double noundef 2.300000e+00, i64 %12, ptr %14, i1 noundef zeroext false, i32 noundef 0)
  call void @llvm.lifetime.start.p0(i64 16, ptr %5) #3
  call void @llvm.memcpy.p0.p0.i64(ptr align 16 %5, ptr align 16 @__const._ZN12_GLOBAL__N_133ParseTest_TestValidDoubleArg_Test8TestBodyEv.in_args2, i64 16, i1 false)
  call void @_ZNSt17basic_string_viewIcSt11char_traitsIcEEC2EPKc(ptr noundef nonnull align 8 dereferenceable(16) %6, ptr noundef @.str.343) #3
  %15 = getelementptr inbounds nuw { i64, ptr }, ptr %6, i32 0, i32 0
  %16 = load i64, ptr %15, align 8
  %17 = getelementptr inbounds nuw { i64, ptr }, ptr %6, i32 0, i32 1
  %18 = load ptr, ptr %17, align 8
  call void @_ZN12_GLOBAL__N_19TestParseILi2EEEvRAT__PKcidSt17basic_string_viewIcSt11char_traitsIcEEbi(ptr noundef nonnull align 8 dereferenceable(16) %5, i32 noundef 1, double noundef 1.125000e+00, i64 %16, ptr %18, i1 noundef zeroext false, i32 noundef 0)
  call void @llvm.lifetime.start.p0(i64 24, ptr %7) #3
  call void @llvm.memcpy.p0.p0.i64(ptr align 16 %7, ptr align 16 @__const._ZN12_GLOBAL__N_133ParseTest_TestValidDoubleArg_Test8TestBodyEv.in_args3, i64 24, i1 false)
  call void @_ZNSt17basic_string_viewIcSt11char_traitsIcEEC2EPKc(ptr noundef nonnull align 8 dereferenceable(16) %8, ptr noundef @.str.343) #3
  %19 = getelementptr inbounds nuw { i64, ptr }, ptr %8, i32 0, i32 0
  %20 = load i64, ptr %19, align 8
  %21 = getelementptr inbounds nuw { i64, ptr }, ptr %8, i32 0, i32 1
  %22 = load ptr, ptr %21, align 8
  call void @_ZN12_GLOBAL__N_19TestParseILi3EEEvRAT__PKcidSt17basic_string_viewIcSt11char_traitsIcEEbi(ptr noundef nonnull align 8 dereferenceable(24) %7, i32 noundef 1, double noundef 9.970000e+01, i64 %20, ptr %22, i1 noundef zeroext false, i32 noundef 0)
  call void @llvm.lifetime.start.p0(i64 24, ptr %9) #3
  call void @llvm.memcpy.p0.p0.i64(ptr align 16 %9, ptr align 16 @__const._ZN12_GLOBAL__N_133ParseTest_TestValidDoubleArg_Test8TestBodyEv.in_args4, i64 24, i1 false)
  call void @_ZNSt17basic_string_viewIcSt11char_traitsIcEEC2EPKc(ptr noundef nonnull align 8 dereferenceable(16) %10, ptr noundef @.str.343) #3
  %23 = getelementptr inbounds nuw { i64, ptr }, ptr %10, i32 0, i32 0
  %24 = load i64, ptr %23, align 8
  %25 = getelementptr inbounds nuw { i64, ptr }, ptr %10, i32 0, i32 1
  %26 = load ptr, ptr %25, align 8
  call void @_ZN12_GLOBAL__N_19TestParseILi3EEEvRAT__PKcidSt17basic_string_viewIcSt11char_traitsIcEEbi(ptr noundef nonnull align 8 dereferenceable(24) %9, i32 noundef 1, double noundef 3.206250e+01, i64 %24, ptr %26, i1 noundef zeroext false, i32 noundef 0)
  call void @llvm.lifetime.end.p0(i64 24, ptr %9) #3
  call void @llvm.lifetime.end.p0(i64 24, ptr %7) #3
  call void @llvm.lifetime.end.p0(i64 16, ptr %5) #3
  call void @llvm.lifetime.end.p0(i64 16, ptr %3) #3
  ret void
}